; ModuleID = '52/3908.c'
source_filename = "52/3908.c"
target datalayout = "e-m:e-p270:32:32-p271:32:32-p272:64:64-i64:64-f80:128-n8:16:32:64-S128"
target triple = "x86_64-pc-linux-gnu"

@.str = private unnamed_addr constant [5 x i8] c"%d%d\00", align 1
@.str.1 = private unnamed_addr constant [3 x i8] c"%d\00", align 1
@.str.2 = private unnamed_addr constant [4 x i8] c" %d\00", align 1

; Function Attrs: noinline nounwind uwtable
define dso_local i32 @main() #0 {
  %1 = alloca i32, align 4
  %2 = alloca i32, align 4
  %3 = alloca i32, align 4
  %4 = alloca i32, align 4
  %5 = alloca [20 x i32], align 16
  store i32 0, i32* %1, align 4
  %6 = bitcast [20 x i32]* %5 to i8*
  call void @llvm.memset.p0i8.i64(i8* align 16 %6, i8 0, i64 80, i1 false)
  %7 = call i32 (i8*, ...) @__isoc99_scanf(i8* getelementptr inbounds ([5 x i8], [5 x i8]* @.str, i64 0, i64 0), i32* %2, i32* %3)
  store i32 0, i32* %4, align 4
  br label %8

8:                                                ; preds = %17, %0
  %9 = load i32, i32* %4, align 4
  %10 = load i32, i32* %2, align 4
  %11 = icmp slt i32 %9, %10
  br i1 %11, label %12, label %20

12:                                               ; preds = %8
  %13 = load i32, i32* %4, align 4
  %14 = sext i32 %13 to i64
  %15 = getelementptr inbounds [20 x i32], [20 x i32]* %5, i64 0, i64 %14
  %16 = call i32 (i8*, ...) @__isoc99_scanf(i8* getelementptr inbounds ([3 x i8], [3 x i8]* @.str.1, i64 0, i64 0), i32* %15)
  br label %17

17:                                               ; preds = %12
  %18 = load i32, i32* %4, align 4
  %19 = add nsw i32 %18, 1
  store i32 %19, i32* %4, align 4
  br label %8

20:                                               ; preds = %8
  store i32 0, i32* %4, align 4
  br label %21

21:                                               ; preds = %28, %20
  %22 = load i32, i32* %4, align 4
  %23 = load i32, i32* %3, align 4
  %24 = icmp slt i32 %22, %23
  br i1 %24, label %25, label %31

25:                                               ; preds = %21
  %26 = load i32, i32* %2, align 4
  %27 = getelementptr inbounds [20 x i32], [20 x i32]* %5, i64 0, i64 0
  call void @change(i32 %26, i32* %27)
  br label %28

28:                                               ; preds = %25
  %29 = load i32, i32* %4, align 4
  %30 = add nsw i32 %29, 1
  store i32 %30, i32* %4, align 4
  br label %21

31:                                               ; preds = %21
  %32 = getelementptr inbounds [20 x i32], [20 x i32]* %5, i64 0, i64 0
  %33 = load i32, i32* %32, align 16
  %34 = call i32 (i8*, ...) @printf(i8* getelementptr inbounds ([3 x i8], [3 x i8]* @.str.1, i64 0, i64 0), i32 %33)
  store i32 1, i32* %4, align 4
  br label %35

35:                                               ; preds = %45, %31
  %36 = load i32, i32* %4, align 4
  %37 = load i32, i32* %2, align 4
  %38 = icmp slt i32 %36, %37
  br i1 %38, label %39, label %48

39:                                               ; preds = %35
  %40 = load i32, i32* %4, align 4
  %41 = sext i32 %40 to i64
  %42 = getelementptr inbounds [20 x i32], [20 x i32]* %5, i64 0, i64 %41
  %43 = load i32, i32* %42, align 4
  %44 = call i32 (i8*, ...) @printf(i8* getelementptr inbounds ([4 x i8], [4 x i8]* @.str.2, i64 0, i64 0), i32 %43)
  br label %45

45:                                               ; preds = %39
  %46 = load i32, i32* %4, align 4
  %47 = add nsw i32 %46, 1
  store i32 %47, i32* %4, align 4
  br label %35

48:                                               ; preds = %35
  ret i32 0
}

; Function Attrs: argmemonly nounwind willreturn
declare void @llvm.memset.p0i8.i64(i8* nocapture writeonly, i8, i64, i1 immarg) #1

declare dso_local i32 @__isoc99_scanf(i8*, ...) #2

declare dso_local i32 @printf(i8*, ...) #2

; Function Attrs: noinline nounwind uwtable
define dso_local void @change(i32 %0, i32* %1) #0 {
  %3 = alloca i32, align 4
  %4 = alloca i32*, align 8
  %5 = alloca i32, align 4
  %6 = alloca i32, align 4
  store i32 %0, i32* %3, align 4
  store i32* %1, i32** %4, align 8
  %7 = load i32*, i32** %4, align 8
  %8 = load i32, i32* %3, align 4
  %9 = sub nsw i32 %8, 1
  %10 = sext i32 %9 to i64
  %11 = getelementptr inbounds i32, i32* %7, i64 %10
  %12 = load i32, i32* %11, align 4
  store i32 %12, i32* %6, align 4
  %13 = load i32, i32* %3, align 4
  %14 = sub nsw i32 %13, 1
  store i32 %14, i32* %5, align 4
  br label %15

15:                                               ; preds = %29, %2
  %16 = load i32, i32* %5, align 4
  %17 = icmp sgt i32 %16, 0
  br i1 %17, label %18, label %32

18:                                               ; preds = %15
  %19 = load i32*, i32** %4, align 8
  %20 = load i32, i32* %5, align 4
  %21 = sub nsw i32 %20, 1
  %22 = sext i32 %21 to i64
  %23 = getelementptr inbounds i32, i32* %19, i64 %22
  %24 = load i32, i32* %23, align 4
  %25 = load i32*, i32** %4, align 8
  %26 = load i32, i32* %5, align 4
  %27 = sext i32 %26 to i64
  %28 = getelementptr inbounds i32, i32* %25, i64 %27
  store i32 %24, i32* %28, align 4
  br label %29

29:                                               ; preds = %18
  %30 = load i32, i32* %5, align 4
  %31 = add nsw i32 %30, -1
  store i32 %31, i32* %5, align 4
  br label %15

32:                                               ; preds = %15
  %33 = load i32, i32* %6, align 4
  %34 = load i32*, i32** %4, align 8
  %35 = getelementptr inbounds i32, i32* %34, i64 0
  store i32 %33, i32* %35, align 4
  ret void
}


!llvm.module.flags = !{!0}
!llvm.ident = !{!1}

!0 = !{i32 1, !"wchar_size", i32 4}
!1 = !{!"clang version 10.0.0-4ubuntu1 "}
